; Function Attrs: nounwind uwtable
define ptr @l___private_Lean_Meta_ExprLens_0__Lean_Meta_foldAncestorsAux___rarg___lambda__4(ptr noundef %0, ptr noundef %1, ptr noundef %2, ptr noundef %3, ptr noundef %4, ptr noundef %5, ptr noundef %6, ptr noundef %7, ptr noundef %8, ptr noundef %9, ptr noundef %10) #0 {
  %12 = ptrtoint ptr %0 to i64
  %13 = and i64 %12, 1
  %.not = icmp eq i64 %13, 0
  br i1 %.not, label %14, label %lean_inc.exit27

14:                                               ; preds = %11
  %.val.i = load i32, ptr %0, align 4, !tbaa !4
  %15 = icmp sgt i32 %.val.i, 0
  br i1 %15, label %16, label %18, !prof !13

16:                                               ; preds = %14
  %17 = add nuw i32 %.val.i, 1
  store i32 %17, ptr %0, align 4, !tbaa !4
  br label %lean_inc.exit27

18:                                               ; preds = %14
  %.not.i = icmp eq i32 %.val.i, 0
  br i1 %.not.i, label %lean_inc.exit27, label %19

19:                                               ; preds = %18
  tail call void @lean_inc_ref_cold(ptr noundef nonnull %0) #5
  br label %lean_inc.exit27

lean_inc.exit27:                                  ; preds = %19, %18, %16, %11
  %20 = ptrtoint ptr %1 to i64
  %21 = and i64 %20, 1
  %.not31 = icmp eq i64 %21, 0
  br i1 %.not31, label %22, label %lean_inc.exit

22:                                               ; preds = %lean_inc.exit27
  %.val.i28 = load i32, ptr %1, align 4, !tbaa !4
  %23 = icmp sgt i32 %.val.i28, 0
  br i1 %23, label %24, label %26, !prof !13

24:                                               ; preds = %22
  %25 = add nuw i32 %.val.i28, 1
  store i32 %25, ptr %1, align 4, !tbaa !4
  br label %lean_inc.exit

26:                                               ; preds = %22
  %.not.i29 = icmp eq i32 %.val.i28, 0
  br i1 %.not.i29, label %lean_inc.exit, label %27

27:                                               ; preds = %26
  tail call void @lean_inc_ref_cold(ptr noundef nonnull %1) #5
  br label %lean_inc.exit

lean_inc.exit:                                    ; preds = %27, %26, %24, %lean_inc.exit27
  %28 = tail call ptr @lean_apply_4(ptr noundef %0, ptr noundef %1, ptr noundef %2, ptr noundef nonnull inttoptr (i64 7 to ptr), ptr noundef %3) #5
  tail call void @lean_inc_heartbeat() #5
  %29 = tail call noalias ptr @mi_malloc_small(i64 noundef 88) #5
  %30 = icmp eq ptr %29, null
  br i1 %30, label %31, label %lean_alloc_closure.exit

31:                                               ; preds = %lean_inc.exit
  tail call void @lean_internal_panic_out_of_memory() #6
  unreachable

lean_alloc_closure.exit:                          ; preds = %lean_inc.exit
  %32 = getelementptr inbounds nuw i8, ptr %29, i64 4
  store i32 1, ptr %29, align 4, !tbaa !4
  store i32 -184549288, ptr %32, align 4
  %33 = getelementptr inbounds nuw i8, ptr %29, i64 8
  store ptr @l___private_Lean_Meta_ExprLens_0__Lean_Meta_foldAncestorsAux___rarg___lambda__3, ptr %33, align 8, !tbaa !9
  %34 = getelementptr inbounds nuw i8, ptr %29, i64 16
  store i16 9, ptr %34, align 8, !tbaa !11
  %35 = getelementptr inbounds nuw i8, ptr %29, i64 18
  store i16 8, ptr %35, align 2, !tbaa !11
  %36 = getelementptr inbounds nuw i8, ptr %29, i64 24
  store ptr %1, ptr %36, align 8, !tbaa !9
  %37 = getelementptr inbounds nuw i8, ptr %29, i64 32
  store ptr %0, ptr %37, align 8, !tbaa !9
  %38 = getelementptr inbounds nuw i8, ptr %29, i64 40
  store ptr %4, ptr %38, align 8, !tbaa !9
  %39 = getelementptr inbounds nuw i8, ptr %29, i64 48
  store ptr %5, ptr %39, align 8, !tbaa !9
  %40 = getelementptr inbounds nuw i8, ptr %29, i64 56
  store ptr %6, ptr %40, align 8, !tbaa !9
  %41 = getelementptr inbounds nuw i8, ptr %29, i64 64
  store ptr %7, ptr %41, align 8, !tbaa !9
  %42 = getelementptr inbounds nuw i8, ptr %29, i64 72
  store ptr %8, ptr %42, align 8, !tbaa !9
  %43 = getelementptr inbounds nuw i8, ptr %29, i64 80
  store ptr %10, ptr %43, align 8, !tbaa !9
  %44 = tail call ptr @lean_apply_4(ptr noundef %9, ptr noundef nonnull inttoptr (i64 1 to ptr), ptr noundef nonnull inttoptr (i64 1 to ptr), ptr noundef %28, ptr noundef nonnull %29) #5
  ret ptr %44
}